; Function Attrs: mustprogress nounwind uwtable
define hidden void @_ZN4llvh5TimerD2Ev(ptr noundef nonnull align 8 dereferenceable(160) %this) unnamed_addr #0 align 2 {
entry:
  %TG = getelementptr inbounds i8, ptr %this, i64 136
  %0 = load ptr, ptr %TG, align 8
  %tobool.not = icmp eq ptr %0, null
  br i1 %tobool.not, label %cleanup, label %if.end

if.end:                                           ; preds = %entry
  tail call void @_ZN4llvh10TimerGroup11removeTimerERNS_5TimerE(ptr noundef nonnull align 8 dereferenceable(112) %0, ptr noundef nonnull align 8 dereferenceable(160) %this)
  br label %cleanup

cleanup:                                          ; preds = %entry, %if.end
  %Description = getelementptr inbounds i8, ptr %this, i64 96
  tail call void @_ZNSt7__cxx1112basic_stringIcSt11char_traitsIcESaIcEED1Ev(ptr noundef nonnull align 8 dereferenceable(32) %Description) #21
  %Name = getelementptr inbounds i8, ptr %this, i64 64
  tail call void @_ZNSt7__cxx1112basic_stringIcSt11char_traitsIcESaIcEED1Ev(ptr noundef nonnull align 8 dereferenceable(32) %Name) #21
  ret void
}